Certificate:
    Data:
        Version: 3 (0x2)
        Serial Number:
            b7:46:e3:ec:a6:92:a4:81:aa:2b:e5:0f:90:a3:c0:e9
        Signature Algorithm: sha256WithRSAEncryption
        Issuer: CN=Ufuk Mbp
        Validity
            Not Before: Apr 20 19:23:04 2024 GMT
            Not After : Jul 24 19:23:04 2026 GMT
        Subject: CN=localhost
        Subject Public Key Info:
            Public Key Algorithm: rsaEncryption
                Public-Key: (2048 bit)
                Modulus:
                    00:da:4b:95:b1:f7:04:00:ef:48:af:6b:f4:b8:2a:
                    6f:d1:7e:98:b4:f9:6c:cb:90:a1:90:a2:0b:d0:86:
                    2e:e4:f7:c4:92:d7:ea:8b:6d:82:12:34:0e:64:0e:
                    5a:32:62:aa:85:ea:15:ef:12:d2:9b:75:27:75:24:
                    fa:99:f3:b7:91:38:15:5c:e9:64:53:55:d1:1c:e4:
                    59:c4:20:48:c8:82:40:a3:bc:29:14:ce:aa:91:9e:
                    03:d4:13:81:e4:5c:92:d1:49:59:9d:41:a0:4b:f3:
                    31:d3:18:58:0d:b7:94:87:b7:1c:ae:28:18:2c:5c:
                    7e:06:3a:64:f3:75:b8:92:ed:11:d0:c1:60:db:7a:
                    78:b2:bb:01:4a:e1:1f:c2:4a:bc:9b:ef:5a:11:56:
                    f1:27:2b:da:fe:9d:b7:b1:17:a2:fa:1a:34:63:74:
                    82:47:f7:ee:34:47:f5:eb:46:46:ab:ec:c7:81:05:
                    40:2d:68:f3:08:b0:4a:0a:c8:bd:b8:43:4d:6e:b3:
                    6a:bc:b9:20:c6:b8:39:b5:9b:5f:e6:fe:af:a5:75:
                    1e:d1:92:f2:fe:50:f5:2b:6f:2b:66:85:9e:39:e4:
                    03:ff:51:88:c4:56:49:ac:d0:59:7a:8a:2d:d1:d6:
                    c4:ab:2b:8d:a8:fc:a5:20:0c:af:83:86:f4:4d:27:
                    bc:eb
                Exponent: 65537 (0x10001)
        X509v3 extensions:
            X509v3 Basic Constraints: 
                CA:FALSE
            X509v3 Subject Key Identifier: 
                26:09:4A:08:21:4E:46:27:20:C7:2F:6E:62:25:42:BA:1D:82:07:B7
            X509v3 Authority Key Identifier: 
                keyid:8C:33:36:DB:4A:07:27:77:58:E5:18:16:40:1D:D3:F4:22:3A:4F:69
                DirName:/CN=Ufuk Mbp
                serial:06:66:6B:7A:3D:3A:D1:4B:6A:62:D7:78:AF:F1:1B:96:03:E9:2D:F6
            X509v3 Key Usage: 
                Digital Signature, Key Encipherment
            X509v3 Extended Key Usage: 
                TLS Web Server Authentication
            X509v3 Subject Alternative Name: 
                DNS:localhost
    Signature Algorithm: sha256WithRSAEncryption
    Signature Value:
        37:00:1e:10:1c:08:e8:ad:db:9e:a5:04:45:da:6e:25:cd:7a:
        e0:74:c0:30:9a:3b:94:39:81:0c:de:31:5f:c6:7e:c5:b6:fd:
        0c:5e:cc:52:9b:33:07:28:e0:d2:b5:d7:45:f1:f8:ab:a8:03:
        fd:14:27:b6:a4:79:27:e0:17:49:90:d0:bb:0a:45:b7:84:46:
        dd:f7:dd:48:6c:1d:b4:74:4e:41:04:ff:91:d5:0d:9b:fc:9a:
        eb:59:38:bf:f2:8a:eb:4b:62:2d:b5:bb:d3:e5:2f:8b:69:c9:
        99:79:45:25:f3:3e:75:3a:d6:66:12:b7:cf:55:80:1a:93:f9:
        b7:20:0f:44:c4:6f:de:64:2a:6d:30:75:46:03:4a:9c:be:55:
        da:45:bb:07:41:b8:1e:e0:ee:fa:5f:b3:62:1a:4b:cf:72:33:
        8e:0b:77:92:81:89:a1:7e:66:42:1d:f6:8f:01:73:d6:f3:18:
        ba:1f:b4:45:15:51:a7:3e:2c:1a:89:6e:91:0c:fd:78:60:82:
        ee:f9:4a:02:2f:65:3e:34:18:04:f6:08:71:17:9a:5f:db:cb:
        1a:e1:d8:7c:65:f4:ec:88:d2:ba:f0:eb:e5:ab:03:25:d9:00:
        a4:a9:b3:99:cf:9d:5a:2b:fc:cc:b2:6f:10:66:08:96:a4:4c:
        15:08:90:6b
-----BEGIN CERTIFICATE-----
MIIDaDCCAlCgAwIBAgIRALdG4+ymkqSBqivlD5CjwOkwDQYJKoZIhvcNAQELBQAw
EzERMA8GA1UEAwwIVWZ1ayBNYnAwHhcNMjQwNDIwMTkyMzA0WhcNMjYwNzI0MTky
MzA0WjAUMRIwEAYDVQQDDAlsb2NhbGhvc3QwggEiMA0GCSqGSIb3DQEBAQUAA4IB
DwAwggEKAoIBAQDaS5Wx9wQA70iva/S4Km/Rfpi0+WzLkKGQogvQhi7k98SS1+qL
bYISNA5kDloyYqqF6hXvEtKbdSd1JPqZ87eROBVc6WRTVdEc5FnEIEjIgkCjvCkU
zqqRngPUE4HkXJLRSVmdQaBL8zHTGFgNt5SHtxyuKBgsXH4GOmTzdbiS7RHQwWDb
eniyuwFK4R/CSryb71oRVvEnK9r+nbexF6L6GjRjdIJH9+40R/XrRkar7MeBBUAt
aPMIsEoKyL24Q01us2q8uSDGuDm1m1/m/q+ldR7RkvL+UPUrbytmhZ455AP/UYjE
Vkms0Fl6ii3R1sSrK42o/KUgDK+DhvRNJ7zrAgMBAAGjgbUwgbIwCQYDVR0TBAIw
ADAdBgNVHQ4EFgQUJglKCCFORicgxy9uYiVCuh2CB7cwTgYDVR0jBEcwRYAUjDM2
20oHJ3dY5RgWQB3T9CI6T2mhF6QVMBMxETAPBgNVBAMMCFVmdWsgTWJwghQGZmt6
PTrRS2pi13iv8RuWA+kt9jALBgNVHQ8EBAMCBaAwEwYDVR0lBAwwCgYIKwYBBQUH
AwEwFAYDVR0RBA0wC4IJbG9jYWxob3N0MA0GCSqGSIb3DQEBCwUAA4IBAQA3AB4Q
HAjorduepQRF2m4lzXrgdMAwmjuUOYEM3jFfxn7Ftv0MXsxSmzMHKODStddF8fir
qAP9FCe2pHkn4BdJkNC7CkW3hEbd991IbB20dE5BBP+R1Q2b/JrrWTi/8orrS2It
tbvT5S+LacmZeUUl8z51OtZmErfPVYAak/m3IA9ExG/eZCptMHVGA0qcvlXaRbsH
Qbge4O76X7NiGkvPcjOOC3eSgYmhfmZCHfaPAXPW8xi6H7RFFVGnPiwaiW6RDP14
YILu+UoCL2U+NBgE9ghxF5pf28sa4dh8ZfTsiNK68OvlqwMl2QCkqbOZz51aK/zM
sm8QZgiWpEwVCJBr
-----END CERTIFICATE-----
